target datalayout = "e-m:e-p270:32:32-p271:32:32-p272:64:64-i64:64-i128:128-f80:128-n8:16:32:64-S128"
target triple = "x86_64-pc-linux-gnu"

@parse_binary.hex = internal constant [17 x i8] c"0123456789ABCDEF\00", align 16

; Function Attrs: null_pointer_is_valid sspstrong uwtable
define internal void @parse_binary(ptr noundef %0, ptr noundef %1, i32 noundef %2, i32 noundef %3) #0 {
  %5 = alloca ptr, align 8
  %6 = alloca ptr, align 8
  %7 = alloca i32, align 4
  %8 = alloca i32, align 4
  %9 = alloca i8, align 1
  %10 = alloca i32, align 4
  store ptr %0, ptr %5, align 8
  store ptr %1, ptr %6, align 8
  store i32 %2, ptr %7, align 4
  store i32 %3, ptr %8, align 4
  call void @llvm.lifetime.start.p0(i64 1, ptr %9) #10
  call void @llvm.lifetime.start.p0(i64 4, ptr %10) #10
  store i32 0, ptr %10, align 4
  br label %11

11:                                               ; preds = %40, %4
  %12 = load i32, ptr %10, align 4
  %13 = load i32, ptr %8, align 4
  %14 = udiv i32 %13, 3
  %15 = icmp ult i32 %12, %14
  br i1 %15, label %16, label %43

16:                                               ; preds = %11
  %17 = load ptr, ptr %6, align 8
  %18 = load i32, ptr %7, align 4
  %19 = load i32, ptr %10, align 4
  %20 = add i32 %18, %19
  %21 = call zeroext i8 @tvb_get_uint8(ptr noundef %17, i32 noundef %20)
  store i8 %21, ptr %9, align 1
  %22 = load i8, ptr %9, align 1
  %23 = zext i8 %22 to i32
  %24 = ashr i32 %23, 4
  %25 = sext i32 %24 to i64
  %26 = getelementptr [17 x i8], ptr @parse_binary.hex, i64 0, i64 %25
  %27 = load i8, ptr %26, align 1
  %28 = load ptr, ptr %5, align 8
  %29 = getelementptr i8, ptr %28, i32 1
  store ptr %29, ptr %5, align 8
  store i8 %27, ptr %28, align 1
  %30 = load i8, ptr %9, align 1
  %31 = zext i8 %30 to i32
  %32 = and i32 %31, 15
  %33 = sext i32 %32 to i64
  %34 = getelementptr [17 x i8], ptr @parse_binary.hex, i64 0, i64 %33
  %35 = load i8, ptr %34, align 1
  %36 = load ptr, ptr %5, align 8
  %37 = getelementptr i8, ptr %36, i32 1
  store ptr %37, ptr %5, align 8
  store i8 %35, ptr %36, align 1
  %38 = load ptr, ptr %5, align 8
  %39 = getelementptr i8, ptr %38, i32 1
  store ptr %39, ptr %5, align 8
  store i8 32, ptr %38, align 1
  br label %40

40:                                               ; preds = %16
  %41 = load i32, ptr %10, align 4
  %42 = add i32 %41, 1
  store i32 %42, ptr %10, align 4
  br label %11, !llvm.loop !13

43:                                               ; preds = %11
  %44 = load i32, ptr %10, align 4
  %45 = icmp ne i32 %44, 0
  br i1 %45, label %46, label %49

46:                                               ; preds = %43
  %47 = load ptr, ptr %5, align 8
  %48 = getelementptr i8, ptr %47, i32 -1
  store ptr %48, ptr %5, align 8
  store i8 0, ptr %48, align 1
  br label %49

49:                                               ; preds = %46, %43
  call void @llvm.lifetime.end.p0(i64 4, ptr %10) #10
  call void @llvm.lifetime.end.p0(i64 1, ptr %9) #10
  ret void
}