; Function Attrs: null_pointer_is_valid sspstrong uwtable
define internal void @parse_binary(ptr noundef writeonly captures(none) %0, ptr noundef %1, i32 noundef %2, i32 noundef %3) #0 {
  %5 = udiv i32 %3, 3
  %.not16 = icmp ult i32 %3, 3
  br i1 %.not16, label %._crit_edge.thread, label %.lr.ph

.lr.ph:                                           ; preds = %4, %.lr.ph
  %.014 = phi i32 [ %20, %.lr.ph ], [ 0, %4 ]
  %.01213 = phi ptr [ %19, %.lr.ph ], [ %0, %4 ]
  %6 = add i32 %.014, %2
  %7 = tail call zeroext i8 @tvb_get_uint8(ptr noundef %1, i32 noundef %6)
  %8 = zext i8 %7 to i32
  %9 = lshr i32 %8, 4
  %10 = zext nneg i32 %9 to i64
  %11 = getelementptr [17 x i8], ptr @parse_binary.hex, i64 0, i64 %10
  %12 = load i8, ptr %11, align 1
  %13 = getelementptr i8, ptr %.01213, i64 1
  store i8 %12, ptr %.01213, align 1
  %14 = and i32 %8, 15
  %15 = zext nneg i32 %14 to i64
  %16 = getelementptr [17 x i8], ptr @parse_binary.hex, i64 0, i64 %15
  %17 = load i8, ptr %16, align 1
  %18 = getelementptr i8, ptr %.01213, i64 2
  store i8 %17, ptr %13, align 1
  %19 = getelementptr i8, ptr %.01213, i64 3
  store i8 32, ptr %18, align 1
  %20 = add nuw nsw i32 %.014, 1
  %exitcond.not = icmp eq i32 %20, %5
  br i1 %exitcond.not, label %._crit_edge, label %.lr.ph, !llvm.loop !15

._crit_edge:                                      ; preds = %.lr.ph
  %21 = getelementptr i8, ptr %.01213, i64 2
  store i8 0, ptr %21, align 1
  br label %._crit_edge.thread

._crit_edge.thread:                               ; preds = %4, %._crit_edge
  ret void
}